ARM GAS  C:\Users\SOLDER~1\AppData\Local\Temp\ccZ53BPj.s 			page 1


   1              		.cpu cortex-m3
   2              		.arch armv7-m
   3              		.fpu softvfp
   4              		.eabi_attribute 20, 1
   5              		.eabi_attribute 21, 1
   6              		.eabi_attribute 23, 3
   7              		.eabi_attribute 24, 1
   8              		.eabi_attribute 25, 1
   9              		.eabi_attribute 26, 1
  10              		.eabi_attribute 30, 6
  11              		.eabi_attribute 34, 1
  12              		.eabi_attribute 18, 4
  13              		.file	"syscalls.c"
  14              		.text
  15              	.Ltext0:
  16              		.cfi_sections	.debug_frame
  17              		.file 1 "Core/Src/syscalls.c"
  18              		.global	__env
  19              		.section	.bss.__env,"aw",%nobits
  20              		.align	2
  23              	__env:
  24 0000 00000000 		.space	4
  25              		.global	environ
  26              		.section	.data.environ,"aw"
  27              		.align	2
  30              	environ:
  31 0000 00000000 		.word	__env
  32              		.section	.text.initialise_monitor_handles,"ax",%progbits
  33              		.align	1
  34              		.global	initialise_monitor_handles
  35              		.syntax unified
  36              		.thumb
  37              		.thumb_func
  39              	initialise_monitor_handles:
  40              	.LFB25:
   1:Core/Src/syscalls.c **** /**
   2:Core/Src/syscalls.c ****  ******************************************************************************
   3:Core/Src/syscalls.c ****  * @file      syscalls.c
   4:Core/Src/syscalls.c ****  * @author    Auto-generated by STM32CubeIDE
   5:Core/Src/syscalls.c ****  * @brief     STM32CubeIDE Minimal System calls file
   6:Core/Src/syscalls.c ****  *
   7:Core/Src/syscalls.c ****  *            For more information about which c-functions
   8:Core/Src/syscalls.c ****  *            need which of these lowlevel functions
   9:Core/Src/syscalls.c ****  *            please consult the Newlib libc-manual
  10:Core/Src/syscalls.c ****  ******************************************************************************
  11:Core/Src/syscalls.c ****  * @attention
  12:Core/Src/syscalls.c ****  *
  13:Core/Src/syscalls.c ****  * <h2><center>&copy; Copyright (c) 2020 STMicroelectronics.
  14:Core/Src/syscalls.c ****  * All rights reserved.</center></h2>
  15:Core/Src/syscalls.c ****  *
  16:Core/Src/syscalls.c ****  * This software component is licensed by ST under BSD 3-Clause license,
  17:Core/Src/syscalls.c ****  * the "License"; You may not use this file except in compliance with the
  18:Core/Src/syscalls.c ****  * License. You may obtain a copy of the License at:
  19:Core/Src/syscalls.c ****  *                        opensource.org/licenses/BSD-3-Clause
  20:Core/Src/syscalls.c ****  *
  21:Core/Src/syscalls.c ****  ******************************************************************************
  22:Core/Src/syscalls.c ****  */
ARM GAS  C:\Users\SOLDER~1\AppData\Local\Temp\ccZ53BPj.s 			page 2


  23:Core/Src/syscalls.c **** 
  24:Core/Src/syscalls.c **** /* Includes */
  25:Core/Src/syscalls.c **** #include <sys/stat.h>
  26:Core/Src/syscalls.c **** #include <stdlib.h>
  27:Core/Src/syscalls.c **** #include <errno.h>
  28:Core/Src/syscalls.c **** #include <stdio.h>
  29:Core/Src/syscalls.c **** #include <signal.h>
  30:Core/Src/syscalls.c **** #include <time.h>
  31:Core/Src/syscalls.c **** #include <sys/time.h>
  32:Core/Src/syscalls.c **** #include <sys/times.h>
  33:Core/Src/syscalls.c **** 
  34:Core/Src/syscalls.c **** 
  35:Core/Src/syscalls.c **** /* Variables */
  36:Core/Src/syscalls.c **** extern int __io_putchar(int ch) __attribute__((weak));
  37:Core/Src/syscalls.c **** extern int __io_getchar(void) __attribute__((weak));
  38:Core/Src/syscalls.c **** 
  39:Core/Src/syscalls.c **** 
  40:Core/Src/syscalls.c **** char *__env[1] = { 0 };
  41:Core/Src/syscalls.c **** char **environ = __env;
  42:Core/Src/syscalls.c **** 
  43:Core/Src/syscalls.c **** 
  44:Core/Src/syscalls.c **** /* Functions */
  45:Core/Src/syscalls.c **** void initialise_monitor_handles()
  46:Core/Src/syscalls.c **** {
  41              		.loc 1 46 1
  42              		.cfi_startproc
  43              		@ args = 0, pretend = 0, frame = 0
  44              		@ frame_needed = 1, uses_anonymous_args = 0
  45              		@ link register save eliminated.
  46 0000 80B4     		push	{r7}
  47              		.cfi_def_cfa_offset 4
  48              		.cfi_offset 7, -4
  49 0002 00AF     		add	r7, sp, #0
  50              		.cfi_def_cfa_register 7
  47:Core/Src/syscalls.c **** }
  51              		.loc 1 47 1
  52 0004 00BF     		nop
  53 0006 BD46     		mov	sp, r7
  54              		.cfi_def_cfa_register 13
  55              		@ sp needed
  56 0008 80BC     		pop	{r7}
  57              		.cfi_restore 7
  58              		.cfi_def_cfa_offset 0
  59 000a 7047     		bx	lr
  60              		.cfi_endproc
  61              	.LFE25:
  63              		.section	.text._getpid,"ax",%progbits
  64              		.align	1
  65              		.global	_getpid
  66              		.syntax unified
  67              		.thumb
  68              		.thumb_func
  70              	_getpid:
  71              	.LFB26:
  48:Core/Src/syscalls.c **** 
  49:Core/Src/syscalls.c **** int _getpid(void)
  50:Core/Src/syscalls.c **** {
ARM GAS  C:\Users\SOLDER~1\AppData\Local\Temp\ccZ53BPj.s 			page 3


  72              		.loc 1 50 1
  73              		.cfi_startproc
  74              		@ args = 0, pretend = 0, frame = 0
  75              		@ frame_needed = 1, uses_anonymous_args = 0
  76              		@ link register save eliminated.
  77 0000 80B4     		push	{r7}
  78              		.cfi_def_cfa_offset 4
  79              		.cfi_offset 7, -4
  80 0002 00AF     		add	r7, sp, #0
  81              		.cfi_def_cfa_register 7
  51:Core/Src/syscalls.c **** 	return 1;
  82              		.loc 1 51 9
  83 0004 0123     		movs	r3, #1
  52:Core/Src/syscalls.c **** }
  84              		.loc 1 52 1
  85 0006 1846     		mov	r0, r3
  86 0008 BD46     		mov	sp, r7
  87              		.cfi_def_cfa_register 13
  88              		@ sp needed
  89 000a 80BC     		pop	{r7}
  90              		.cfi_restore 7
  91              		.cfi_def_cfa_offset 0
  92 000c 7047     		bx	lr
  93              		.cfi_endproc
  94              	.LFE26:
  96              		.section	.text._kill,"ax",%progbits
  97              		.align	1
  98              		.global	_kill
  99              		.syntax unified
 100              		.thumb
 101              		.thumb_func
 103              	_kill:
 104              	.LFB27:
  53:Core/Src/syscalls.c **** 
  54:Core/Src/syscalls.c **** int _kill(int pid, int sig)
  55:Core/Src/syscalls.c **** {
 105              		.loc 1 55 1
 106              		.cfi_startproc
 107              		@ args = 0, pretend = 0, frame = 8
 108              		@ frame_needed = 1, uses_anonymous_args = 0
 109 0000 80B5     		push	{r7, lr}
 110              		.cfi_def_cfa_offset 8
 111              		.cfi_offset 7, -8
 112              		.cfi_offset 14, -4
 113 0002 82B0     		sub	sp, sp, #8
 114              		.cfi_def_cfa_offset 16
 115 0004 00AF     		add	r7, sp, #0
 116              		.cfi_def_cfa_register 7
 117 0006 7860     		str	r0, [r7, #4]
 118 0008 3960     		str	r1, [r7]
  56:Core/Src/syscalls.c **** 	errno = EINVAL;
 119              		.loc 1 56 2
 120 000a FFF7FEFF 		bl	__errno
 121 000e 0346     		mov	r3, r0
 122              		.loc 1 56 8
 123 0010 1622     		movs	r2, #22
 124 0012 1A60     		str	r2, [r3]
ARM GAS  C:\Users\SOLDER~1\AppData\Local\Temp\ccZ53BPj.s 			page 4


  57:Core/Src/syscalls.c **** 	return -1;
 125              		.loc 1 57 9
 126 0014 4FF0FF33 		mov	r3, #-1
  58:Core/Src/syscalls.c **** }
 127              		.loc 1 58 1
 128 0018 1846     		mov	r0, r3
 129 001a 0837     		adds	r7, r7, #8
 130              		.cfi_def_cfa_offset 8
 131 001c BD46     		mov	sp, r7
 132              		.cfi_def_cfa_register 13
 133              		@ sp needed
 134 001e 80BD     		pop	{r7, pc}
 135              		.cfi_endproc
 136              	.LFE27:
 138              		.section	.text._exit,"ax",%progbits
 139              		.align	1
 140              		.global	_exit
 141              		.syntax unified
 142              		.thumb
 143              		.thumb_func
 145              	_exit:
 146              	.LFB28:
  59:Core/Src/syscalls.c **** 
  60:Core/Src/syscalls.c **** void _exit (int status)
  61:Core/Src/syscalls.c **** {
 147              		.loc 1 61 1
 148              		.cfi_startproc
 149              		@ args = 0, pretend = 0, frame = 8
 150              		@ frame_needed = 1, uses_anonymous_args = 0
 151 0000 80B5     		push	{r7, lr}
 152              		.cfi_def_cfa_offset 8
 153              		.cfi_offset 7, -8
 154              		.cfi_offset 14, -4
 155 0002 82B0     		sub	sp, sp, #8
 156              		.cfi_def_cfa_offset 16
 157 0004 00AF     		add	r7, sp, #0
 158              		.cfi_def_cfa_register 7
 159 0006 7860     		str	r0, [r7, #4]
  62:Core/Src/syscalls.c **** 	_kill(status, -1);
 160              		.loc 1 62 2
 161 0008 4FF0FF31 		mov	r1, #-1
 162 000c 7868     		ldr	r0, [r7, #4]
 163 000e FFF7FEFF 		bl	_kill
 164              	.L7:
  63:Core/Src/syscalls.c **** 	while (1) {}		/* Make sure we hang here */
 165              		.loc 1 63 8 discriminator 1
 166 0012 00BF     		nop
 167 0014 FDE7     		b	.L7
 168              		.cfi_endproc
 169              	.LFE28:
 171              		.section	.text._read,"ax",%progbits
 172              		.align	1
 173              		.weak	_read
 174              		.syntax unified
 175              		.thumb
 176              		.thumb_func
 178              	_read:
ARM GAS  C:\Users\SOLDER~1\AppData\Local\Temp\ccZ53BPj.s 			page 5


 179              	.LFB29:
  64:Core/Src/syscalls.c **** }
  65:Core/Src/syscalls.c **** 
  66:Core/Src/syscalls.c **** __attribute__((weak)) int _read(int file, char *ptr, int len)
  67:Core/Src/syscalls.c **** {
 180              		.loc 1 67 1
 181              		.cfi_startproc
 182              		@ args = 0, pretend = 0, frame = 24
 183              		@ frame_needed = 1, uses_anonymous_args = 0
 184 0000 80B5     		push	{r7, lr}
 185              		.cfi_def_cfa_offset 8
 186              		.cfi_offset 7, -8
 187              		.cfi_offset 14, -4
 188 0002 86B0     		sub	sp, sp, #24
 189              		.cfi_def_cfa_offset 32
 190 0004 00AF     		add	r7, sp, #0
 191              		.cfi_def_cfa_register 7
 192 0006 F860     		str	r0, [r7, #12]
 193 0008 B960     		str	r1, [r7, #8]
 194 000a 7A60     		str	r2, [r7, #4]
  68:Core/Src/syscalls.c **** 	int DataIdx;
  69:Core/Src/syscalls.c **** 
  70:Core/Src/syscalls.c **** 	for (DataIdx = 0; DataIdx < len; DataIdx++)
 195              		.loc 1 70 15
 196 000c 0023     		movs	r3, #0
 197 000e 7B61     		str	r3, [r7, #20]
 198              		.loc 1 70 2
 199 0010 0AE0     		b	.L9
 200              	.L10:
  71:Core/Src/syscalls.c **** 	{
  72:Core/Src/syscalls.c **** 		*ptr++ = __io_getchar();
 201              		.loc 1 72 12 discriminator 3
 202 0012 FFF7FEFF 		bl	__io_getchar
 203 0016 0146     		mov	r1, r0
 204              		.loc 1 72 7 discriminator 3
 205 0018 BB68     		ldr	r3, [r7, #8]
 206 001a 5A1C     		adds	r2, r3, #1
 207 001c BA60     		str	r2, [r7, #8]
 208              		.loc 1 72 10 discriminator 3
 209 001e CAB2     		uxtb	r2, r1
 210 0020 1A70     		strb	r2, [r3]
  70:Core/Src/syscalls.c **** 	{
 211              		.loc 1 70 42 discriminator 3
 212 0022 7B69     		ldr	r3, [r7, #20]
 213 0024 0133     		adds	r3, r3, #1
 214 0026 7B61     		str	r3, [r7, #20]
 215              	.L9:
  70:Core/Src/syscalls.c **** 	{
 216              		.loc 1 70 28 discriminator 1
 217 0028 7A69     		ldr	r2, [r7, #20]
 218 002a 7B68     		ldr	r3, [r7, #4]
 219 002c 9A42     		cmp	r2, r3
 220 002e F0DB     		blt	.L10
  73:Core/Src/syscalls.c **** 	}
  74:Core/Src/syscalls.c **** 
  75:Core/Src/syscalls.c **** return len;
 221              		.loc 1 75 8
ARM GAS  C:\Users\SOLDER~1\AppData\Local\Temp\ccZ53BPj.s 			page 6


 222 0030 7B68     		ldr	r3, [r7, #4]
  76:Core/Src/syscalls.c **** }
 223              		.loc 1 76 1
 224 0032 1846     		mov	r0, r3
 225 0034 1837     		adds	r7, r7, #24
 226              		.cfi_def_cfa_offset 8
 227 0036 BD46     		mov	sp, r7
 228              		.cfi_def_cfa_register 13
 229              		@ sp needed
 230 0038 80BD     		pop	{r7, pc}
 231              		.cfi_endproc
 232              	.LFE29:
 234              		.section	.text._write,"ax",%progbits
 235              		.align	1
 236              		.weak	_write
 237              		.syntax unified
 238              		.thumb
 239              		.thumb_func
 241              	_write:
 242              	.LFB30:
  77:Core/Src/syscalls.c **** 
  78:Core/Src/syscalls.c **** __attribute__((weak)) int _write(int file, char *ptr, int len)
  79:Core/Src/syscalls.c **** {
 243              		.loc 1 79 1
 244              		.cfi_startproc
 245              		@ args = 0, pretend = 0, frame = 24
 246              		@ frame_needed = 1, uses_anonymous_args = 0
 247 0000 80B5     		push	{r7, lr}
 248              		.cfi_def_cfa_offset 8
 249              		.cfi_offset 7, -8
 250              		.cfi_offset 14, -4
 251 0002 86B0     		sub	sp, sp, #24
 252              		.cfi_def_cfa_offset 32
 253 0004 00AF     		add	r7, sp, #0
 254              		.cfi_def_cfa_register 7
 255 0006 F860     		str	r0, [r7, #12]
 256 0008 B960     		str	r1, [r7, #8]
 257 000a 7A60     		str	r2, [r7, #4]
  80:Core/Src/syscalls.c **** 	int DataIdx;
  81:Core/Src/syscalls.c **** 
  82:Core/Src/syscalls.c **** 	for (DataIdx = 0; DataIdx < len; DataIdx++)
 258              		.loc 1 82 15
 259 000c 0023     		movs	r3, #0
 260 000e 7B61     		str	r3, [r7, #20]
 261              		.loc 1 82 2
 262 0010 09E0     		b	.L13
 263              	.L14:
  83:Core/Src/syscalls.c **** 	{
  84:Core/Src/syscalls.c **** 		__io_putchar(*ptr++);
 264              		.loc 1 84 20 discriminator 3
 265 0012 BB68     		ldr	r3, [r7, #8]
 266 0014 5A1C     		adds	r2, r3, #1
 267 0016 BA60     		str	r2, [r7, #8]
 268              		.loc 1 84 16 discriminator 3
 269 0018 1B78     		ldrb	r3, [r3]	@ zero_extendqisi2
 270              		.loc 1 84 3 discriminator 3
 271 001a 1846     		mov	r0, r3
ARM GAS  C:\Users\SOLDER~1\AppData\Local\Temp\ccZ53BPj.s 			page 7


 272 001c FFF7FEFF 		bl	__io_putchar
  82:Core/Src/syscalls.c **** 	{
 273              		.loc 1 82 42 discriminator 3
 274 0020 7B69     		ldr	r3, [r7, #20]
 275 0022 0133     		adds	r3, r3, #1
 276 0024 7B61     		str	r3, [r7, #20]
 277              	.L13:
  82:Core/Src/syscalls.c **** 	{
 278              		.loc 1 82 28 discriminator 1
 279 0026 7A69     		ldr	r2, [r7, #20]
 280 0028 7B68     		ldr	r3, [r7, #4]
 281 002a 9A42     		cmp	r2, r3
 282 002c F1DB     		blt	.L14
  85:Core/Src/syscalls.c **** 	}
  86:Core/Src/syscalls.c **** 	return len;
 283              		.loc 1 86 9
 284 002e 7B68     		ldr	r3, [r7, #4]
  87:Core/Src/syscalls.c **** }
 285              		.loc 1 87 1
 286 0030 1846     		mov	r0, r3
 287 0032 1837     		adds	r7, r7, #24
 288              		.cfi_def_cfa_offset 8
 289 0034 BD46     		mov	sp, r7
 290              		.cfi_def_cfa_register 13
 291              		@ sp needed
 292 0036 80BD     		pop	{r7, pc}
 293              		.cfi_endproc
 294              	.LFE30:
 296              		.section	.text._close,"ax",%progbits
 297              		.align	1
 298              		.global	_close
 299              		.syntax unified
 300              		.thumb
 301              		.thumb_func
 303              	_close:
 304              	.LFB31:
  88:Core/Src/syscalls.c **** 
  89:Core/Src/syscalls.c **** int _close(int file)
  90:Core/Src/syscalls.c **** {
 305              		.loc 1 90 1
 306              		.cfi_startproc
 307              		@ args = 0, pretend = 0, frame = 8
 308              		@ frame_needed = 1, uses_anonymous_args = 0
 309              		@ link register save eliminated.
 310 0000 80B4     		push	{r7}
 311              		.cfi_def_cfa_offset 4
 312              		.cfi_offset 7, -4
 313 0002 83B0     		sub	sp, sp, #12
 314              		.cfi_def_cfa_offset 16
 315 0004 00AF     		add	r7, sp, #0
 316              		.cfi_def_cfa_register 7
 317 0006 7860     		str	r0, [r7, #4]
  91:Core/Src/syscalls.c **** 	return -1;
 318              		.loc 1 91 9
 319 0008 4FF0FF33 		mov	r3, #-1
  92:Core/Src/syscalls.c **** }
 320              		.loc 1 92 1
ARM GAS  C:\Users\SOLDER~1\AppData\Local\Temp\ccZ53BPj.s 			page 8


 321 000c 1846     		mov	r0, r3
 322 000e 0C37     		adds	r7, r7, #12
 323              		.cfi_def_cfa_offset 4
 324 0010 BD46     		mov	sp, r7
 325              		.cfi_def_cfa_register 13
 326              		@ sp needed
 327 0012 80BC     		pop	{r7}
 328              		.cfi_restore 7
 329              		.cfi_def_cfa_offset 0
 330 0014 7047     		bx	lr
 331              		.cfi_endproc
 332              	.LFE31:
 334              		.section	.text._fstat,"ax",%progbits
 335              		.align	1
 336              		.global	_fstat
 337              		.syntax unified
 338              		.thumb
 339              		.thumb_func
 341              	_fstat:
 342              	.LFB32:
  93:Core/Src/syscalls.c **** 
  94:Core/Src/syscalls.c **** 
  95:Core/Src/syscalls.c **** int _fstat(int file, struct stat *st)
  96:Core/Src/syscalls.c **** {
 343              		.loc 1 96 1
 344              		.cfi_startproc
 345              		@ args = 0, pretend = 0, frame = 8
 346              		@ frame_needed = 1, uses_anonymous_args = 0
 347              		@ link register save eliminated.
 348 0000 80B4     		push	{r7}
 349              		.cfi_def_cfa_offset 4
 350              		.cfi_offset 7, -4
 351 0002 83B0     		sub	sp, sp, #12
 352              		.cfi_def_cfa_offset 16
 353 0004 00AF     		add	r7, sp, #0
 354              		.cfi_def_cfa_register 7
 355 0006 7860     		str	r0, [r7, #4]
 356 0008 3960     		str	r1, [r7]
  97:Core/Src/syscalls.c **** 	st->st_mode = S_IFCHR;
 357              		.loc 1 97 14
 358 000a 3B68     		ldr	r3, [r7]
 359 000c 4FF40052 		mov	r2, #8192
 360 0010 5A60     		str	r2, [r3, #4]
  98:Core/Src/syscalls.c **** 	return 0;
 361              		.loc 1 98 9
 362 0012 0023     		movs	r3, #0
  99:Core/Src/syscalls.c **** }
 363              		.loc 1 99 1
 364 0014 1846     		mov	r0, r3
 365 0016 0C37     		adds	r7, r7, #12
 366              		.cfi_def_cfa_offset 4
 367 0018 BD46     		mov	sp, r7
 368              		.cfi_def_cfa_register 13
 369              		@ sp needed
 370 001a 80BC     		pop	{r7}
 371              		.cfi_restore 7
 372              		.cfi_def_cfa_offset 0
ARM GAS  C:\Users\SOLDER~1\AppData\Local\Temp\ccZ53BPj.s 			page 9


 373 001c 7047     		bx	lr
 374              		.cfi_endproc
 375              	.LFE32:
 377              		.section	.text._isatty,"ax",%progbits
 378              		.align	1
 379              		.global	_isatty
 380              		.syntax unified
 381              		.thumb
 382              		.thumb_func
 384              	_isatty:
 385              	.LFB33:
 100:Core/Src/syscalls.c **** 
 101:Core/Src/syscalls.c **** int _isatty(int file)
 102:Core/Src/syscalls.c **** {
 386              		.loc 1 102 1
 387              		.cfi_startproc
 388              		@ args = 0, pretend = 0, frame = 8
 389              		@ frame_needed = 1, uses_anonymous_args = 0
 390              		@ link register save eliminated.
 391 0000 80B4     		push	{r7}
 392              		.cfi_def_cfa_offset 4
 393              		.cfi_offset 7, -4
 394 0002 83B0     		sub	sp, sp, #12
 395              		.cfi_def_cfa_offset 16
 396 0004 00AF     		add	r7, sp, #0
 397              		.cfi_def_cfa_register 7
 398 0006 7860     		str	r0, [r7, #4]
 103:Core/Src/syscalls.c **** 	return 1;
 399              		.loc 1 103 9
 400 0008 0123     		movs	r3, #1
 104:Core/Src/syscalls.c **** }
 401              		.loc 1 104 1
 402 000a 1846     		mov	r0, r3
 403 000c 0C37     		adds	r7, r7, #12
 404              		.cfi_def_cfa_offset 4
 405 000e BD46     		mov	sp, r7
 406              		.cfi_def_cfa_register 13
 407              		@ sp needed
 408 0010 80BC     		pop	{r7}
 409              		.cfi_restore 7
 410              		.cfi_def_cfa_offset 0
 411 0012 7047     		bx	lr
 412              		.cfi_endproc
 413              	.LFE33:
 415              		.section	.text._lseek,"ax",%progbits
 416              		.align	1
 417              		.global	_lseek
 418              		.syntax unified
 419              		.thumb
 420              		.thumb_func
 422              	_lseek:
 423              	.LFB34:
 105:Core/Src/syscalls.c **** 
 106:Core/Src/syscalls.c **** int _lseek(int file, int ptr, int dir)
 107:Core/Src/syscalls.c **** {
 424              		.loc 1 107 1
 425              		.cfi_startproc
ARM GAS  C:\Users\SOLDER~1\AppData\Local\Temp\ccZ53BPj.s 			page 10


 426              		@ args = 0, pretend = 0, frame = 16
 427              		@ frame_needed = 1, uses_anonymous_args = 0
 428              		@ link register save eliminated.
 429 0000 80B4     		push	{r7}
 430              		.cfi_def_cfa_offset 4
 431              		.cfi_offset 7, -4
 432 0002 85B0     		sub	sp, sp, #20
 433              		.cfi_def_cfa_offset 24
 434 0004 00AF     		add	r7, sp, #0
 435              		.cfi_def_cfa_register 7
 436 0006 F860     		str	r0, [r7, #12]
 437 0008 B960     		str	r1, [r7, #8]
 438 000a 7A60     		str	r2, [r7, #4]
 108:Core/Src/syscalls.c **** 	return 0;
 439              		.loc 1 108 9
 440 000c 0023     		movs	r3, #0
 109:Core/Src/syscalls.c **** }
 441              		.loc 1 109 1
 442 000e 1846     		mov	r0, r3
 443 0010 1437     		adds	r7, r7, #20
 444              		.cfi_def_cfa_offset 4
 445 0012 BD46     		mov	sp, r7
 446              		.cfi_def_cfa_register 13
 447              		@ sp needed
 448 0014 80BC     		pop	{r7}
 449              		.cfi_restore 7
 450              		.cfi_def_cfa_offset 0
 451 0016 7047     		bx	lr
 452              		.cfi_endproc
 453              	.LFE34:
 455              		.section	.text._open,"ax",%progbits
 456              		.align	1
 457              		.global	_open
 458              		.syntax unified
 459              		.thumb
 460              		.thumb_func
 462              	_open:
 463              	.LFB35:
 110:Core/Src/syscalls.c **** 
 111:Core/Src/syscalls.c **** int _open(char *path, int flags, ...)
 112:Core/Src/syscalls.c **** {
 464              		.loc 1 112 1
 465              		.cfi_startproc
 466              		@ args = 4, pretend = 12, frame = 8
 467              		@ frame_needed = 1, uses_anonymous_args = 1
 468              		@ link register save eliminated.
 469 0000 0EB4     		push	{r1, r2, r3}
 470              		.cfi_def_cfa_offset 12
 471              		.cfi_offset 1, -12
 472              		.cfi_offset 2, -8
 473              		.cfi_offset 3, -4
 474 0002 80B4     		push	{r7}
 475              		.cfi_def_cfa_offset 16
 476              		.cfi_offset 7, -16
 477 0004 82B0     		sub	sp, sp, #8
 478              		.cfi_def_cfa_offset 24
 479 0006 00AF     		add	r7, sp, #0
ARM GAS  C:\Users\SOLDER~1\AppData\Local\Temp\ccZ53BPj.s 			page 11


 480              		.cfi_def_cfa_register 7
 481 0008 7860     		str	r0, [r7, #4]
 113:Core/Src/syscalls.c **** 	/* Pretend like we always fail */
 114:Core/Src/syscalls.c **** 	return -1;
 482              		.loc 1 114 9
 483 000a 4FF0FF33 		mov	r3, #-1
 115:Core/Src/syscalls.c **** }
 484              		.loc 1 115 1
 485 000e 1846     		mov	r0, r3
 486 0010 0837     		adds	r7, r7, #8
 487              		.cfi_def_cfa_offset 16
 488 0012 BD46     		mov	sp, r7
 489              		.cfi_def_cfa_register 13
 490              		@ sp needed
 491 0014 80BC     		pop	{r7}
 492              		.cfi_restore 7
 493              		.cfi_def_cfa_offset 12
 494 0016 03B0     		add	sp, sp, #12
 495              		.cfi_restore 3
 496              		.cfi_restore 2
 497              		.cfi_restore 1
 498              		.cfi_def_cfa_offset 0
 499 0018 7047     		bx	lr
 500              		.cfi_endproc
 501              	.LFE35:
 503              		.section	.text._wait,"ax",%progbits
 504              		.align	1
 505              		.global	_wait
 506              		.syntax unified
 507              		.thumb
 508              		.thumb_func
 510              	_wait:
 511              	.LFB36:
 116:Core/Src/syscalls.c **** 
 117:Core/Src/syscalls.c **** int _wait(int *status)
 118:Core/Src/syscalls.c **** {
 512              		.loc 1 118 1
 513              		.cfi_startproc
 514              		@ args = 0, pretend = 0, frame = 8
 515              		@ frame_needed = 1, uses_anonymous_args = 0
 516 0000 80B5     		push	{r7, lr}
 517              		.cfi_def_cfa_offset 8
 518              		.cfi_offset 7, -8
 519              		.cfi_offset 14, -4
 520 0002 82B0     		sub	sp, sp, #8
 521              		.cfi_def_cfa_offset 16
 522 0004 00AF     		add	r7, sp, #0
 523              		.cfi_def_cfa_register 7
 524 0006 7860     		str	r0, [r7, #4]
 119:Core/Src/syscalls.c **** 	errno = ECHILD;
 525              		.loc 1 119 2
 526 0008 FFF7FEFF 		bl	__errno
 527 000c 0346     		mov	r3, r0
 528              		.loc 1 119 8
 529 000e 0A22     		movs	r2, #10
 530 0010 1A60     		str	r2, [r3]
 120:Core/Src/syscalls.c **** 	return -1;
ARM GAS  C:\Users\SOLDER~1\AppData\Local\Temp\ccZ53BPj.s 			page 12


 531              		.loc 1 120 9
 532 0012 4FF0FF33 		mov	r3, #-1
 121:Core/Src/syscalls.c **** }
 533              		.loc 1 121 1
 534 0016 1846     		mov	r0, r3
 535 0018 0837     		adds	r7, r7, #8
 536              		.cfi_def_cfa_offset 8
 537 001a BD46     		mov	sp, r7
 538              		.cfi_def_cfa_register 13
 539              		@ sp needed
 540 001c 80BD     		pop	{r7, pc}
 541              		.cfi_endproc
 542              	.LFE36:
 544              		.section	.text._unlink,"ax",%progbits
 545              		.align	1
 546              		.global	_unlink
 547              		.syntax unified
 548              		.thumb
 549              		.thumb_func
 551              	_unlink:
 552              	.LFB37:
 122:Core/Src/syscalls.c **** 
 123:Core/Src/syscalls.c **** int _unlink(char *name)
 124:Core/Src/syscalls.c **** {
 553              		.loc 1 124 1
 554              		.cfi_startproc
 555              		@ args = 0, pretend = 0, frame = 8
 556              		@ frame_needed = 1, uses_anonymous_args = 0
 557 0000 80B5     		push	{r7, lr}
 558              		.cfi_def_cfa_offset 8
 559              		.cfi_offset 7, -8
 560              		.cfi_offset 14, -4
 561 0002 82B0     		sub	sp, sp, #8
 562              		.cfi_def_cfa_offset 16
 563 0004 00AF     		add	r7, sp, #0
 564              		.cfi_def_cfa_register 7
 565 0006 7860     		str	r0, [r7, #4]
 125:Core/Src/syscalls.c **** 	errno = ENOENT;
 566              		.loc 1 125 2
 567 0008 FFF7FEFF 		bl	__errno
 568 000c 0346     		mov	r3, r0
 569              		.loc 1 125 8
 570 000e 0222     		movs	r2, #2
 571 0010 1A60     		str	r2, [r3]
 126:Core/Src/syscalls.c **** 	return -1;
 572              		.loc 1 126 9
 573 0012 4FF0FF33 		mov	r3, #-1
 127:Core/Src/syscalls.c **** }
 574              		.loc 1 127 1
 575 0016 1846     		mov	r0, r3
 576 0018 0837     		adds	r7, r7, #8
 577              		.cfi_def_cfa_offset 8
 578 001a BD46     		mov	sp, r7
 579              		.cfi_def_cfa_register 13
 580              		@ sp needed
 581 001c 80BD     		pop	{r7, pc}
 582              		.cfi_endproc
ARM GAS  C:\Users\SOLDER~1\AppData\Local\Temp\ccZ53BPj.s 			page 13


 583              	.LFE37:
 585              		.section	.text._times,"ax",%progbits
 586              		.align	1
 587              		.global	_times
 588              		.syntax unified
 589              		.thumb
 590              		.thumb_func
 592              	_times:
 593              	.LFB38:
 128:Core/Src/syscalls.c **** 
 129:Core/Src/syscalls.c **** int _times(struct tms *buf)
 130:Core/Src/syscalls.c **** {
 594              		.loc 1 130 1
 595              		.cfi_startproc
 596              		@ args = 0, pretend = 0, frame = 8
 597              		@ frame_needed = 1, uses_anonymous_args = 0
 598              		@ link register save eliminated.
 599 0000 80B4     		push	{r7}
 600              		.cfi_def_cfa_offset 4
 601              		.cfi_offset 7, -4
 602 0002 83B0     		sub	sp, sp, #12
 603              		.cfi_def_cfa_offset 16
 604 0004 00AF     		add	r7, sp, #0
 605              		.cfi_def_cfa_register 7
 606 0006 7860     		str	r0, [r7, #4]
 131:Core/Src/syscalls.c **** 	return -1;
 607              		.loc 1 131 9
 608 0008 4FF0FF33 		mov	r3, #-1
 132:Core/Src/syscalls.c **** }
 609              		.loc 1 132 1
 610 000c 1846     		mov	r0, r3
 611 000e 0C37     		adds	r7, r7, #12
 612              		.cfi_def_cfa_offset 4
 613 0010 BD46     		mov	sp, r7
 614              		.cfi_def_cfa_register 13
 615              		@ sp needed
 616 0012 80BC     		pop	{r7}
 617              		.cfi_restore 7
 618              		.cfi_def_cfa_offset 0
 619 0014 7047     		bx	lr
 620              		.cfi_endproc
 621              	.LFE38:
 623              		.section	.text._stat,"ax",%progbits
 624              		.align	1
 625              		.global	_stat
 626              		.syntax unified
 627              		.thumb
 628              		.thumb_func
 630              	_stat:
 631              	.LFB39:
 133:Core/Src/syscalls.c **** 
 134:Core/Src/syscalls.c **** int _stat(char *file, struct stat *st)
 135:Core/Src/syscalls.c **** {
 632              		.loc 1 135 1
 633              		.cfi_startproc
 634              		@ args = 0, pretend = 0, frame = 8
 635              		@ frame_needed = 1, uses_anonymous_args = 0
ARM GAS  C:\Users\SOLDER~1\AppData\Local\Temp\ccZ53BPj.s 			page 14


 636              		@ link register save eliminated.
 637 0000 80B4     		push	{r7}
 638              		.cfi_def_cfa_offset 4
 639              		.cfi_offset 7, -4
 640 0002 83B0     		sub	sp, sp, #12
 641              		.cfi_def_cfa_offset 16
 642 0004 00AF     		add	r7, sp, #0
 643              		.cfi_def_cfa_register 7
 644 0006 7860     		str	r0, [r7, #4]
 645 0008 3960     		str	r1, [r7]
 136:Core/Src/syscalls.c **** 	st->st_mode = S_IFCHR;
 646              		.loc 1 136 14
 647 000a 3B68     		ldr	r3, [r7]
 648 000c 4FF40052 		mov	r2, #8192
 649 0010 5A60     		str	r2, [r3, #4]
 137:Core/Src/syscalls.c **** 	return 0;
 650              		.loc 1 137 9
 651 0012 0023     		movs	r3, #0
 138:Core/Src/syscalls.c **** }
 652              		.loc 1 138 1
 653 0014 1846     		mov	r0, r3
 654 0016 0C37     		adds	r7, r7, #12
 655              		.cfi_def_cfa_offset 4
 656 0018 BD46     		mov	sp, r7
 657              		.cfi_def_cfa_register 13
 658              		@ sp needed
 659 001a 80BC     		pop	{r7}
 660              		.cfi_restore 7
 661              		.cfi_def_cfa_offset 0
 662 001c 7047     		bx	lr
 663              		.cfi_endproc
 664              	.LFE39:
 666              		.section	.text._link,"ax",%progbits
 667              		.align	1
 668              		.global	_link
 669              		.syntax unified
 670              		.thumb
 671              		.thumb_func
 673              	_link:
 674              	.LFB40:
 139:Core/Src/syscalls.c **** 
 140:Core/Src/syscalls.c **** int _link(char *old, char *new)
 141:Core/Src/syscalls.c **** {
 675              		.loc 1 141 1
 676              		.cfi_startproc
 677              		@ args = 0, pretend = 0, frame = 8
 678              		@ frame_needed = 1, uses_anonymous_args = 0
 679 0000 80B5     		push	{r7, lr}
 680              		.cfi_def_cfa_offset 8
 681              		.cfi_offset 7, -8
 682              		.cfi_offset 14, -4
 683 0002 82B0     		sub	sp, sp, #8
 684              		.cfi_def_cfa_offset 16
 685 0004 00AF     		add	r7, sp, #0
 686              		.cfi_def_cfa_register 7
 687 0006 7860     		str	r0, [r7, #4]
 688 0008 3960     		str	r1, [r7]
ARM GAS  C:\Users\SOLDER~1\AppData\Local\Temp\ccZ53BPj.s 			page 15


 142:Core/Src/syscalls.c **** 	errno = EMLINK;
 689              		.loc 1 142 2
 690 000a FFF7FEFF 		bl	__errno
 691 000e 0346     		mov	r3, r0
 692              		.loc 1 142 8
 693 0010 1F22     		movs	r2, #31
 694 0012 1A60     		str	r2, [r3]
 143:Core/Src/syscalls.c **** 	return -1;
 695              		.loc 1 143 9
 696 0014 4FF0FF33 		mov	r3, #-1
 144:Core/Src/syscalls.c **** }
 697              		.loc 1 144 1
 698 0018 1846     		mov	r0, r3
 699 001a 0837     		adds	r7, r7, #8
 700              		.cfi_def_cfa_offset 8
 701 001c BD46     		mov	sp, r7
 702              		.cfi_def_cfa_register 13
 703              		@ sp needed
 704 001e 80BD     		pop	{r7, pc}
 705              		.cfi_endproc
 706              	.LFE40:
 708              		.section	.text._fork,"ax",%progbits
 709              		.align	1
 710              		.global	_fork
 711              		.syntax unified
 712              		.thumb
 713              		.thumb_func
 715              	_fork:
 716              	.LFB41:
 145:Core/Src/syscalls.c **** 
 146:Core/Src/syscalls.c **** int _fork(void)
 147:Core/Src/syscalls.c **** {
 717              		.loc 1 147 1
 718              		.cfi_startproc
 719              		@ args = 0, pretend = 0, frame = 0
 720              		@ frame_needed = 1, uses_anonymous_args = 0
 721 0000 80B5     		push	{r7, lr}
 722              		.cfi_def_cfa_offset 8
 723              		.cfi_offset 7, -8
 724              		.cfi_offset 14, -4
 725 0002 00AF     		add	r7, sp, #0
 726              		.cfi_def_cfa_register 7
 148:Core/Src/syscalls.c **** 	errno = EAGAIN;
 727              		.loc 1 148 2
 728 0004 FFF7FEFF 		bl	__errno
 729 0008 0346     		mov	r3, r0
 730              		.loc 1 148 8
 731 000a 0B22     		movs	r2, #11
 732 000c 1A60     		str	r2, [r3]
 149:Core/Src/syscalls.c **** 	return -1;
 733              		.loc 1 149 9
 734 000e 4FF0FF33 		mov	r3, #-1
 150:Core/Src/syscalls.c **** }
 735              		.loc 1 150 1
 736 0012 1846     		mov	r0, r3
 737 0014 80BD     		pop	{r7, pc}
 738              		.cfi_endproc
ARM GAS  C:\Users\SOLDER~1\AppData\Local\Temp\ccZ53BPj.s 			page 16


 739              	.LFE41:
 741              		.section	.text._execve,"ax",%progbits
 742              		.align	1
 743              		.global	_execve
 744              		.syntax unified
 745              		.thumb
 746              		.thumb_func
 748              	_execve:
 749              	.LFB42:
 151:Core/Src/syscalls.c **** 
 152:Core/Src/syscalls.c **** int _execve(char *name, char **argv, char **env)
 153:Core/Src/syscalls.c **** {
 750              		.loc 1 153 1
 751              		.cfi_startproc
 752              		@ args = 0, pretend = 0, frame = 16
 753              		@ frame_needed = 1, uses_anonymous_args = 0
 754 0000 80B5     		push	{r7, lr}
 755              		.cfi_def_cfa_offset 8
 756              		.cfi_offset 7, -8
 757              		.cfi_offset 14, -4
 758 0002 84B0     		sub	sp, sp, #16
 759              		.cfi_def_cfa_offset 24
 760 0004 00AF     		add	r7, sp, #0
 761              		.cfi_def_cfa_register 7
 762 0006 F860     		str	r0, [r7, #12]
 763 0008 B960     		str	r1, [r7, #8]
 764 000a 7A60     		str	r2, [r7, #4]
 154:Core/Src/syscalls.c **** 	errno = ENOMEM;
 765              		.loc 1 154 2
 766 000c FFF7FEFF 		bl	__errno
 767 0010 0346     		mov	r3, r0
 768              		.loc 1 154 8
 769 0012 0C22     		movs	r2, #12
 770 0014 1A60     		str	r2, [r3]
 155:Core/Src/syscalls.c **** 	return -1;
 771              		.loc 1 155 9
 772 0016 4FF0FF33 		mov	r3, #-1
 156:Core/Src/syscalls.c **** }
 773              		.loc 1 156 1
 774 001a 1846     		mov	r0, r3
 775 001c 1037     		adds	r7, r7, #16
 776              		.cfi_def_cfa_offset 8
 777 001e BD46     		mov	sp, r7
 778              		.cfi_def_cfa_register 13
 779              		@ sp needed
 780 0020 80BD     		pop	{r7, pc}
 781              		.cfi_endproc
 782              	.LFE42:
 784              		.weak	__io_putchar
 785              		.weak	__io_getchar
 786              		.text
 787              	.Letext0:
 788              		.file 2 "C:\\dev_tools\\STM32_tools\\gnu-tools-for-stm32.12.3\\tools\\bin\\../lib/gcc/arm-none-eab
 789              		.file 3 "C:\\dev_tools\\STM32_tools\\gnu-tools-for-stm32.12.3\\tools\\bin\\../lib/gcc/arm-none-eab
 790              		.file 4 "C:\\dev_tools\\STM32_tools\\gnu-tools-for-stm32.12.3\\tools\\bin\\../lib/gcc/arm-none-eab
 791              		.file 5 "C:\\dev_tools\\STM32_tools\\gnu-tools-for-stm32.12.3\\tools\\bin\\../lib/gcc/arm-none-eab
 792              		.file 6 "C:\\dev_tools\\STM32_tools\\gnu-tools-for-stm32.12.3\\tools\\bin\\../lib/gcc/arm-none-eab
ARM GAS  C:\Users\SOLDER~1\AppData\Local\Temp\ccZ53BPj.s 			page 17


 793              		.file 7 "C:\\dev_tools\\STM32_tools\\gnu-tools-for-stm32.12.3\\tools\\bin\\../lib/gcc/arm-none-eab
 794              		.file 8 "C:\\dev_tools\\STM32_tools\\gnu-tools-for-stm32.12.3\\tools\\bin\\../lib/gcc/arm-none-eab
 795              		.file 9 "C:\\dev_tools\\STM32_tools\\gnu-tools-for-stm32.12.3\\tools\\bin\\../lib/gcc/arm-none-eab
ARM GAS  C:\Users\SOLDER~1\AppData\Local\Temp\ccZ53BPj.s 			page 18

